target datalayout = "e-m:e-p270:32:32-p271:32:32-p272:64:64-i64:64-i128:128-f80:128-n8:16:32:64-S128"
target triple = "x86_64-pc-linux-gnu"

%struct.PROV_ECDSA_CTX = type { ptr, ptr, ptr, i32, i8, [256 x i8], i64, [50 x i8], ptr, ptr, i64, ptr, i64, ptr, ptr, i32 }
%struct.ossl_param_st = type { ptr, i32, ptr, i64, i64 }

@.str.3 = private unnamed_addr constant [10 x i8] c"signature\00", align 1

; Function Attrs: nounwind uwtable
define internal i32 @ecdsa_verify_directly(ptr noundef %0, ptr noundef %1, i64 noundef %2, ptr noundef %3, i64 noundef %4) #0 {
  %6 = alloca i32, align 4
  %7 = alloca ptr, align 8
  %8 = alloca ptr, align 8
  %9 = alloca i64, align 8
  %10 = alloca ptr, align 8
  %11 = alloca i64, align 8
  %12 = alloca ptr, align 8
  %13 = alloca i32, align 4
  store ptr %0, ptr %7, align 8, !tbaa !3
  store ptr %1, ptr %8, align 8, !tbaa !7
  store i64 %2, ptr %9, align 8, !tbaa !23
  store ptr %3, ptr %10, align 8, !tbaa !7
  store i64 %4, ptr %11, align 8, !tbaa !23
  call void @llvm.lifetime.start.p0(i64 8, ptr %12) #7
  %14 = load ptr, ptr %7, align 8, !tbaa !3
  store ptr %14, ptr %12, align 8, !tbaa !3
  %15 = call i32 @ossl_prov_is_running()
  %16 = icmp ne i32 %15, 0
  br i1 %16, label %17, label %28

17:                                               ; preds = %5
  %18 = load ptr, ptr %12, align 8, !tbaa !3
  %19 = getelementptr inbounds nuw %struct.PROV_ECDSA_CTX, ptr %18, i32 0, i32 10
  %20 = load i64, ptr %19, align 8, !tbaa !40
  %21 = icmp ne i64 %20, 0
  br i1 %21, label %22, label %29

22:                                               ; preds = %17
  %23 = load i64, ptr %11, align 8, !tbaa !23
  %24 = load ptr, ptr %12, align 8, !tbaa !3
  %25 = getelementptr inbounds nuw %struct.PROV_ECDSA_CTX, ptr %24, i32 0, i32 10
  %26 = load i64, ptr %25, align 8, !tbaa !40
  %27 = icmp ne i64 %23, %26
  br i1 %27, label %28, label %29

28:                                               ; preds = %22, %5
  store i32 0, ptr %6, align 4
  store i32 1, ptr %13, align 4
  br label %40

29:                                               ; preds = %22, %17
  %30 = load ptr, ptr %10, align 8, !tbaa !7
  %31 = load i64, ptr %11, align 8, !tbaa !23
  %32 = trunc i64 %31 to i32
  %33 = load ptr, ptr %8, align 8, !tbaa !7
  %34 = load i64, ptr %9, align 8, !tbaa !23
  %35 = trunc i64 %34 to i32
  %36 = load ptr, ptr %12, align 8, !tbaa !3
  %37 = getelementptr inbounds nuw %struct.PROV_ECDSA_CTX, ptr %36, i32 0, i32 2
  %38 = load ptr, ptr %37, align 8, !tbaa !29
  %39 = call i32 @ECDSA_verify(i32 noundef 0, ptr noundef %30, i32 noundef %32, ptr noundef %33, i32 noundef %35, ptr noundef %38)
  store i32 %39, ptr %6, align 4
  store i32 1, ptr %13, align 4
  br label %40

40:                                               ; preds = %29, %28
  call void @llvm.lifetime.end.p0(i64 8, ptr %12) #7
  %41 = load i32, ptr %6, align 4
  ret i32 %41
}

; Function Attrs: nounwind uwtable
define internal i32 @ecdsa_verify_message_final(ptr noundef %0) #0 {
  %2 = alloca i32, align 4
  %3 = alloca ptr, align 8
  %4 = alloca ptr, align 8
  %5 = alloca [64 x i8], align 16
  %6 = alloca i32, align 4
  %7 = alloca i32, align 4
  store ptr %0, ptr %3, align 8, !tbaa !3
  call void @llvm.lifetime.start.p0(i64 8, ptr %4) #7
  %8 = load ptr, ptr %3, align 8, !tbaa !3
  store ptr %8, ptr %4, align 8, !tbaa !3
  call void @llvm.lifetime.start.p0(i64 64, ptr %5) #7
  call void @llvm.lifetime.start.p0(i64 4, ptr %6) #7
  store i32 0, ptr %6, align 4, !tbaa !26
  %9 = call i32 @ossl_prov_is_running()
  %10 = icmp ne i32 %9, 0
  br i1 %10, label %11, label %19

11:                                               ; preds = %1
  %12 = load ptr, ptr %4, align 8, !tbaa !3
  %13 = icmp eq ptr %12, null
  br i1 %13, label %19, label %14

14:                                               ; preds = %11
  %15 = load ptr, ptr %4, align 8, !tbaa !3
  %16 = getelementptr inbounds nuw %struct.PROV_ECDSA_CTX, ptr %15, i32 0, i32 9
  %17 = load ptr, ptr %16, align 8, !tbaa !25
  %18 = icmp eq ptr %17, null
  br i1 %18, label %19, label %20

19:                                               ; preds = %14, %11, %1
  store i32 0, ptr %2, align 4
  store i32 1, ptr %7, align 4
  br label %40

20:                                               ; preds = %14
  %21 = load ptr, ptr %4, align 8, !tbaa !3
  %22 = getelementptr inbounds nuw %struct.PROV_ECDSA_CTX, ptr %21, i32 0, i32 9
  %23 = load ptr, ptr %22, align 8, !tbaa !25
  %24 = getelementptr inbounds [64 x i8], ptr %5, i64 0, i64 0
  %25 = call i32 @EVP_DigestFinal_ex(ptr noundef %23, ptr noundef %24, ptr noundef %6)
  %26 = icmp ne i32 %25, 0
  br i1 %26, label %28, label %27

27:                                               ; preds = %20
  store i32 0, ptr %2, align 4
  store i32 1, ptr %7, align 4
  br label %40

28:                                               ; preds = %20
  %29 = load ptr, ptr %3, align 8, !tbaa !3
  %30 = load ptr, ptr %4, align 8, !tbaa !3
  %31 = getelementptr inbounds nuw %struct.PROV_ECDSA_CTX, ptr %30, i32 0, i32 11
  %32 = load ptr, ptr %31, align 8, !tbaa !28
  %33 = load ptr, ptr %4, align 8, !tbaa !3
  %34 = getelementptr inbounds nuw %struct.PROV_ECDSA_CTX, ptr %33, i32 0, i32 12
  %35 = load i64, ptr %34, align 8, !tbaa !42
  %36 = getelementptr inbounds [64 x i8], ptr %5, i64 0, i64 0
  %37 = load i32, ptr %6, align 4, !tbaa !26
  %38 = zext i32 %37 to i64
  %39 = call i32 @ecdsa_verify_directly(ptr noundef %29, ptr noundef %32, i64 noundef %35, ptr noundef %36, i64 noundef %38)
  store i32 %39, ptr %2, align 4
  store i32 1, ptr %7, align 4
  br label %40

40:                                               ; preds = %28, %27, %19
  call void @llvm.lifetime.end.p0(i64 4, ptr %6) #7
  call void @llvm.lifetime.end.p0(i64 64, ptr %5) #7
  call void @llvm.lifetime.end.p0(i64 8, ptr %4) #7
  %41 = load i32, ptr %2, align 4
  ret i32 %41
}

; Function Attrs: nounwind uwtable
define internal i32 @ecdsa_verify_set_sig(ptr noundef %0, ptr noundef %1, i64 noundef %2) #0 {
  %4 = alloca ptr, align 8
  %5 = alloca ptr, align 8
  %6 = alloca i64, align 8
  %7 = alloca ptr, align 8
  %8 = alloca [2 x %struct.ossl_param_st], align 16
  %9 = alloca %struct.ossl_param_st, align 8
  %10 = alloca %struct.ossl_param_st, align 8
  store ptr %0, ptr %4, align 8, !tbaa !3
  store ptr %1, ptr %5, align 8, !tbaa !7
  store i64 %2, ptr %6, align 8, !tbaa !23
  call void @llvm.lifetime.start.p0(i64 8, ptr %7) #7
  %11 = load ptr, ptr %4, align 8, !tbaa !3
  store ptr %11, ptr %7, align 8, !tbaa !3
  call void @llvm.lifetime.start.p0(i64 80, ptr %8) #7
  %12 = getelementptr inbounds [2 x %struct.ossl_param_st], ptr %8, i64 0, i64 0
  call void @llvm.lifetime.start.p0(i64 40, ptr %9) #7
  %13 = load ptr, ptr %5, align 8, !tbaa !7
  %14 = load i64, ptr %6, align 8, !tbaa !23
  call void @OSSL_PARAM_construct_octet_string(ptr dead_on_unwind writable sret(%struct.ossl_param_st) align 8 %9, ptr noundef @.str.3, ptr noundef %13, i64 noundef %14)
  call void @llvm.memcpy.p0.p0.i64(ptr align 16 %12, ptr align 8 %9, i64 40, i1 false), !tbaa.struct !43
  call void @llvm.lifetime.end.p0(i64 40, ptr %9) #7
  %15 = getelementptr inbounds [2 x %struct.ossl_param_st], ptr %8, i64 0, i64 1
  call void @llvm.lifetime.start.p0(i64 40, ptr %10) #7
  call void @OSSL_PARAM_construct_end(ptr dead_on_unwind writable sret(%struct.ossl_param_st) align 8 %10)
  call void @llvm.memcpy.p0.p0.i64(ptr align 8 %15, ptr align 8 %10, i64 40, i1 false), !tbaa.struct !43
  call void @llvm.lifetime.end.p0(i64 40, ptr %10) #7
  %16 = load ptr, ptr %7, align 8, !tbaa !3
  %17 = getelementptr inbounds [2 x %struct.ossl_param_st], ptr %8, i64 0, i64 0
  %18 = call i32 @ecdsa_sigalg_set_ctx_params(ptr noundef %16, ptr noundef %17)
  call void @llvm.lifetime.end.p0(i64 80, ptr %8) #7
  call void @llvm.lifetime.end.p0(i64 8, ptr %7) #7
  ret i32 %18
}

; Function Attrs: nounwind uwtable
define internal i32 @ecdsa_digest_verify_final(ptr noundef %0, ptr noundef %1, i64 noundef %2) #0 {
  %4 = alloca i32, align 4
  %5 = alloca ptr, align 8
  %6 = alloca ptr, align 8
  %7 = alloca i64, align 8
  %8 = alloca ptr, align 8
  %9 = alloca i32, align 4
  %10 = alloca i32, align 4
  store ptr %0, ptr %5, align 8, !tbaa !3
  store ptr %1, ptr %6, align 8, !tbaa !7
  store i64 %2, ptr %7, align 8, !tbaa !23
  call void @llvm.lifetime.start.p0(i64 8, ptr %8) #7
  %11 = load ptr, ptr %5, align 8, !tbaa !3
  store ptr %11, ptr %8, align 8, !tbaa !3
  call void @llvm.lifetime.start.p0(i64 4, ptr %9) #7
  store i32 0, ptr %9, align 4, !tbaa !26
  %12 = call i32 @ossl_prov_is_running()
  %13 = icmp ne i32 %12, 0
  br i1 %13, label %14, label %22

14:                                               ; preds = %3
  %15 = load ptr, ptr %8, align 8, !tbaa !3
  %16 = icmp eq ptr %15, null
  br i1 %16, label %22, label %17

17:                                               ; preds = %14
  %18 = load ptr, ptr %8, align 8, !tbaa !3
  %19 = getelementptr inbounds nuw %struct.PROV_ECDSA_CTX, ptr %18, i32 0, i32 9
  %20 = load ptr, ptr %19, align 8, !tbaa !25
  %21 = icmp eq ptr %20, null
  br i1 %21, label %22, label %23

22:                                               ; preds = %17, %14, %3
  store i32 0, ptr %4, align 4
  store i32 1, ptr %10, align 4
  br label %47

23:                                               ; preds = %17
  %24 = load ptr, ptr %8, align 8, !tbaa !3
  %25 = getelementptr inbounds nuw %struct.PROV_ECDSA_CTX, ptr %24, i32 0, i32 4
  %26 = load i8, ptr %25, align 4
  %27 = and i8 %26, 1
  %28 = zext i8 %27 to i32
  %29 = icmp ne i32 %28, 0
  br i1 %29, label %30, label %31

30:                                               ; preds = %23
  store i32 0, ptr %4, align 4
  store i32 1, ptr %10, align 4
  br label %47

31:                                               ; preds = %23
  %32 = load ptr, ptr %8, align 8, !tbaa !3
  %33 = load ptr, ptr %6, align 8, !tbaa !7
  %34 = load i64, ptr %7, align 8, !tbaa !23
  %35 = call i32 @ecdsa_verify_set_sig(ptr noundef %32, ptr noundef %33, i64 noundef %34)
  %36 = icmp ne i32 %35, 0
  br i1 %36, label %37, label %40

37:                                               ; preds = %31
  %38 = load ptr, ptr %8, align 8, !tbaa !3
  %39 = call i32 @ecdsa_verify_message_final(ptr noundef %38)
  store i32 %39, ptr %9, align 4, !tbaa !26
  br label %40

40:                                               ; preds = %37, %31
  %41 = load ptr, ptr %8, align 8, !tbaa !3
  %42 = getelementptr inbounds nuw %struct.PROV_ECDSA_CTX, ptr %41, i32 0, i32 4
  %43 = load i8, ptr %42, align 4
  %44 = and i8 %43, -3
  %45 = or i8 %44, 2
  store i8 %45, ptr %42, align 4
  %46 = load i32, ptr %9, align 4, !tbaa !26
  store i32 %46, ptr %4, align 4
  store i32 1, ptr %10, align 4
  br label %47

47:                                               ; preds = %40, %30, %22
  call void @llvm.lifetime.end.p0(i64 4, ptr %9) #7
  call void @llvm.lifetime.end.p0(i64 8, ptr %8) #7
  %48 = load i32, ptr %4, align 4
  ret i32 %48
}