; Function Attrs: nounwind uwtable
define internal i32 @ecdsa_digest_verify_final(ptr noundef %0, ptr noundef %1, i64 noundef %2) #0 {
  %4 = alloca [64 x i8], align 16
  %5 = alloca i32, align 4
  %6 = alloca [2 x %struct.ossl_param_st], align 16
  %7 = alloca %struct.ossl_param_st, align 8
  %8 = tail call i32 @ossl_prov_is_running() #8
  %9 = icmp eq i32 %8, 0
  %10 = icmp eq ptr %0, null
  %or.cond = or i1 %10, %9
  br i1 %or.cond, label %49, label %11

11:                                               ; preds = %3
  %12 = getelementptr inbounds nuw i8, ptr %0, i64 360
  %13 = load ptr, ptr %12, align 8, !tbaa !18
  %14 = icmp eq ptr %13, null
  br i1 %14, label %49, label %15

15:                                               ; preds = %11
  %16 = getelementptr inbounds nuw i8, ptr %0, i64 28
  %17 = load i8, ptr %16, align 4
  %18 = and i8 %17, 1
  %.not = icmp eq i8 %18, 0
  br i1 %.not, label %19, label %49

19:                                               ; preds = %15
  call void @llvm.lifetime.start.p0(i64 80, ptr nonnull %6) #8
  call void @OSSL_PARAM_construct_octet_string(ptr dead_on_unwind nonnull writable sret(%struct.ossl_param_st) align 8 %6, ptr noundef nonnull @.str.3, ptr noundef %1, i64 noundef %2) #8
  %20 = getelementptr inbounds nuw i8, ptr %6, i64 40
  call void @llvm.lifetime.start.p0(i64 40, ptr nonnull %7) #8
  call void @OSSL_PARAM_construct_end(ptr dead_on_unwind nonnull writable sret(%struct.ossl_param_st) align 8 %7) #8
  call void @llvm.memcpy.p0.p0.i64(ptr noundef nonnull align 8 dereferenceable(40) %20, ptr noundef nonnull align 8 dereferenceable(40) %7, i64 40, i1 false), !tbaa.struct !22
  call void @llvm.lifetime.end.p0(i64 40, ptr nonnull %7) #8
  %21 = call range(i32 0, 2) i32 @ecdsa_sigalg_set_ctx_params(ptr noundef nonnull %0, ptr noundef nonnull %6)
  call void @llvm.lifetime.end.p0(i64 80, ptr nonnull %6) #8
  %.not13 = icmp eq i32 %21, 0
  br i1 %.not13, label %46, label %22

22:                                               ; preds = %19
  call void @llvm.lifetime.start.p0(i64 64, ptr nonnull %4) #8
  call void @llvm.lifetime.start.p0(i64 4, ptr nonnull %5) #8
  store i32 0, ptr %5, align 4, !tbaa !21
  %23 = call i32 @ossl_prov_is_running() #8
  %24 = icmp eq i32 %23, 0
  br i1 %24, label %ecdsa_verify_message_final.exit, label %25

25:                                               ; preds = %22
  %26 = load ptr, ptr %12, align 8, !tbaa !18
  %27 = icmp eq ptr %26, null
  br i1 %27, label %ecdsa_verify_message_final.exit, label %28

28:                                               ; preds = %25
  %29 = call i32 @EVP_DigestFinal_ex(ptr noundef nonnull %26, ptr noundef nonnull %4, ptr noundef nonnull %5) #8
  %.not.i = icmp eq i32 %29, 0
  br i1 %.not.i, label %ecdsa_verify_message_final.exit, label %30

30:                                               ; preds = %28
  %31 = getelementptr inbounds nuw i8, ptr %0, i64 376
  %32 = load ptr, ptr %31, align 8, !tbaa !25
  %33 = getelementptr inbounds nuw i8, ptr %0, i64 384
  %34 = load i64, ptr %33, align 8, !tbaa !26
  %35 = load i32, ptr %5, align 4, !tbaa !21
  %36 = call i32 @ossl_prov_is_running() #8
  %.not.i.i = icmp eq i32 %36, 0
  br i1 %.not.i.i, label %ecdsa_verify_message_final.exit, label %37

37:                                               ; preds = %30
  %38 = zext i32 %35 to i64
  %39 = getelementptr inbounds nuw i8, ptr %0, i64 368
  %40 = load i64, ptr %39, align 8, !tbaa !27
  %.not10.i.i = icmp eq i64 %40, 0
  %.not11.i.i = icmp eq i64 %40, %38
  %or.cond.i.i = or i1 %.not10.i.i, %.not11.i.i
  br i1 %or.cond.i.i, label %41, label %ecdsa_verify_message_final.exit

41:                                               ; preds = %37
  %42 = trunc i64 %34 to i32
  %43 = getelementptr inbounds nuw i8, ptr %0, i64 16
  %44 = load ptr, ptr %43, align 8, !tbaa !19
  %45 = call i32 @ECDSA_verify(i32 noundef 0, ptr noundef nonnull %4, i32 noundef %35, ptr noundef %32, i32 noundef %42, ptr noundef %44) #8
  br label %ecdsa_verify_message_final.exit

ecdsa_verify_message_final.exit:                  ; preds = %22, %25, %28, %30, %37, %41
  %.0.i = phi i32 [ 0, %25 ], [ 0, %22 ], [ 0, %28 ], [ %45, %41 ], [ 0, %37 ], [ 0, %30 ]
  call void @llvm.lifetime.end.p0(i64 4, ptr nonnull %5) #8
  call void @llvm.lifetime.end.p0(i64 64, ptr nonnull %4) #8
  br label %46

46:                                               ; preds = %ecdsa_verify_message_final.exit, %19
  %.0 = phi i32 [ %.0.i, %ecdsa_verify_message_final.exit ], [ 0, %19 ]
  %47 = load i8, ptr %16, align 4
  %48 = or i8 %47, 2
  store i8 %48, ptr %16, align 4
  br label %49

49:                                               ; preds = %15, %3, %11, %46
  %.011 = phi i32 [ %.0, %46 ], [ 0, %11 ], [ 0, %3 ], [ 0, %15 ]
  ret i32 %.011
}